target datalayout = "e-m:e-p270:32:32-p271:32:32-p272:64:64-i64:64-i128:128-f80:128-n8:16:32:64-S128"
target triple = "x86_64-pc-linux-gnu"

%struct.func_ctx_st = type { ptr, i32, i32 }
%struct.radix_thread_st = type { ptr, ptr, ptr, i64, i64, [8 x ptr], [8 x ptr], ptr, ptr, ptr, i32, i32, i64 }
%struct.radix_obj_st = type { ptr, ptr, i8 }

@.str.44 = private unnamed_addr constant [33 x i8] c"../openssl/test/radix/quic_ops.c\00", align 1
@.str.60 = private unnamed_addr constant [2 x i8] c"1\00", align 1
@alpn_ossltest = internal constant [9 x i8] c"\08ossltest", align 1
@.str.74 = private unnamed_addr constant [38 x i8] c"../openssl/test/radix/quic_bindings.c\00", align 1
@.str.86 = private unnamed_addr constant [10 x i8] c"NUM_SLOTS\00", align 1
@radix_thread = internal global i32 0, align 4
@.str.93 = private unnamed_addr constant [4 x i8] c"idx\00", align 1
@.str.94 = private unnamed_addr constant [24 x i8] c"*p_ssl = RT()->ssl[idx]\00", align 1
@.str.95 = private unnamed_addr constant [37 x i8] c"expect_slot_ssl(fctx, (0), &((ssl)))\00", align 1
@.str.107 = private unnamed_addr constant [30 x i8] c"SSL_set_blocking_mode(ssl, 0)\00", align 1
@.str.108 = private unnamed_addr constant [63 x i8] c"SSL_set_alpn_protos(ssl, alpn_ossltest, sizeof(alpn_ossltest))\00", align 1
@.str.109 = private unnamed_addr constant [32 x i8] c"check_consistent_want(ssl, ret)\00", align 1
@.str.110 = private unnamed_addr constant [4 x i8] c"ret\00", align 1

; Function Attrs: nounwind uwtable
define internal void @radix_activate_obj(ptr noundef %0) #0 {
  %2 = alloca ptr, align 8
  store ptr %0, ptr %2, align 8, !tbaa !51
  %3 = load ptr, ptr %2, align 8, !tbaa !51
  %4 = icmp ne ptr %3, null
  br i1 %4, label %5, label %11

5:                                                ; preds = %1
  %6 = load ptr, ptr %2, align 8, !tbaa !51
  %7 = getelementptr inbounds nuw %struct.radix_obj_st, ptr %6, i32 0, i32 2
  %8 = load i8, ptr %7, align 8
  %9 = and i8 %8, -3
  %10 = or i8 %9, 2
  store i8 %10, ptr %7, align 8
  br label %11

11:                                               ; preds = %5, %1
  ret void
}

; Function Attrs: nounwind uwtable
define internal i32 @is_want(ptr noundef %0, i32 noundef %1) #0 {
  %3 = alloca ptr, align 8
  %4 = alloca i32, align 4
  %5 = alloca i32, align 4
  store ptr %0, ptr %3, align 8, !tbaa !49
  store i32 %1, ptr %4, align 4, !tbaa !9
  call void @llvm.lifetime.start.p0(i64 4, ptr %5) #9
  %6 = load ptr, ptr %3, align 8, !tbaa !49
  %7 = load i32, ptr %4, align 4, !tbaa !9
  %8 = call i32 @SSL_get_error(ptr noundef %6, i32 noundef %7)
  store i32 %8, ptr %5, align 4, !tbaa !9
  %9 = load i32, ptr %5, align 4, !tbaa !9
  %10 = icmp eq i32 %9, 2
  br i1 %10, label %14, label %11

11:                                               ; preds = %2
  %12 = load i32, ptr %5, align 4, !tbaa !9
  %13 = icmp eq i32 %12, 3
  br label %14

14:                                               ; preds = %11, %2
  %15 = phi i1 [ true, %2 ], [ %13, %11 ]
  %16 = zext i1 %15 to i32
  call void @llvm.lifetime.end.p0(i64 4, ptr %5) #9
  ret i32 %16
}

; Function Attrs: nounwind uwtable
define internal void @radix_activate_slot(i64 noundef %0) #0 {
  %2 = alloca i64, align 8
  store i64 %0, ptr %2, align 8, !tbaa !19
  %3 = load i64, ptr %2, align 8, !tbaa !19
  %4 = icmp uge i64 %3, 8
  br i1 %4, label %5, label %6

5:                                                ; preds = %1
  br label %12

6:                                                ; preds = %1
  %7 = call ptr @radix_get_thread()
  %8 = getelementptr inbounds nuw %struct.radix_thread_st, ptr %7, i32 0, i32 5
  %9 = load i64, ptr %2, align 8, !tbaa !19
  %10 = getelementptr inbounds nuw [8 x ptr], ptr %8, i64 0, i64 %9
  %11 = load ptr, ptr %10, align 8, !tbaa !51
  call void @radix_activate_obj(ptr noundef %11)
  br label %12

12:                                               ; preds = %6, %5
  ret void
}

; Function Attrs: nounwind uwtable
define internal ptr @radix_get_thread() #0 {
  %1 = call ptr @CRYPTO_THREAD_get_local(ptr noundef @radix_thread)
  ret ptr %1
}

; Function Attrs: nounwind uwtable
define internal i32 @expect_slot_ssl(ptr noundef %0, i64 noundef %1, ptr noundef %2) #0 {
  %4 = alloca i32, align 4
  %5 = alloca ptr, align 8
  %6 = alloca i64, align 8
  %7 = alloca ptr, align 8
  store ptr %0, ptr %5, align 8, !tbaa !42
  store i64 %1, ptr %6, align 8, !tbaa !19
  store ptr %2, ptr %7, align 8, !tbaa !90
  %8 = load i64, ptr %6, align 8, !tbaa !19
  %9 = call i32 @test_size_t_lt(ptr noundef @.str.74, i32 noundef 670, ptr noundef @.str.93, ptr noundef @.str.86, i64 noundef %8, i64 noundef 8)
  %10 = icmp ne i32 %9, 0
  br i1 %10, label %11, label %20

11:                                               ; preds = %3
  %12 = call ptr @radix_get_thread()
  %13 = getelementptr inbounds nuw %struct.radix_thread_st, ptr %12, i32 0, i32 6
  %14 = load i64, ptr %6, align 8, !tbaa !19
  %15 = getelementptr inbounds nuw [8 x ptr], ptr %13, i64 0, i64 %14
  %16 = load ptr, ptr %15, align 8, !tbaa !49
  %17 = load ptr, ptr %7, align 8, !tbaa !90
  store ptr %16, ptr %17, align 8, !tbaa !49
  %18 = call i32 @test_ptr(ptr noundef @.str.74, i32 noundef 671, ptr noundef @.str.94, ptr noundef %16)
  %19 = icmp ne i32 %18, 0
  br i1 %19, label %21, label %20

20:                                               ; preds = %11, %3
  store i32 0, ptr %4, align 4
  br label %22

21:                                               ; preds = %11
  store i32 1, ptr %4, align 4
  br label %22

22:                                               ; preds = %21, %20
  %23 = load i32, ptr %4, align 4
  ret i32 %23
}

; Function Attrs: nounwind uwtable
define internal i32 @hf_connect_wait(ptr noundef %0) #0 {
  %2 = alloca i32, align 4
  %3 = alloca ptr, align 8
  %4 = alloca i32, align 4
  %5 = alloca i32, align 4
  %6 = alloca ptr, align 8
  %7 = alloca i32, align 4
  store ptr %0, ptr %3, align 8, !tbaa !42
  call void @llvm.lifetime.start.p0(i64 4, ptr %4) #9
  store i32 0, ptr %4, align 4, !tbaa !9
  call void @llvm.lifetime.start.p0(i64 4, ptr %5) #9
  call void @llvm.lifetime.start.p0(i64 8, ptr %6) #9
  br label %8

8:                                                ; preds = %1
  store ptr null, ptr %6, align 8, !tbaa !49
  %9 = load ptr, ptr %3, align 8, !tbaa !42
  %10 = call i32 @expect_slot_ssl(ptr noundef %9, i64 noundef 0, ptr noundef %6)
  %11 = icmp ne i32 %10, 0
  %12 = zext i1 %11 to i32
  %13 = call i32 @test_true(ptr noundef @.str.44, i32 noundef 673, ptr noundef @.str.95, i32 noundef %12)
  %14 = icmp ne i32 %13, 0
  br i1 %14, label %16, label %15

15:                                               ; preds = %8
  br label %74

16:                                               ; preds = %8
  br label %17

17:                                               ; preds = %16
  br label %18

18:                                               ; preds = %17
  %19 = call ptr @radix_get_thread()
  %20 = getelementptr inbounds nuw %struct.radix_thread_st, ptr %19, i32 0, i32 12
  %21 = load i64, ptr %20, align 8, !tbaa !58
  %22 = icmp eq i64 %21, 0
  br i1 %22, label %23, label %40

23:                                               ; preds = %18
  %24 = load ptr, ptr %6, align 8, !tbaa !49
  %25 = call i32 @SSL_set_blocking_mode(ptr noundef %24, i32 noundef 0)
  %26 = icmp ne i32 %25, 0
  %27 = zext i1 %26 to i32
  %28 = call i32 @test_true(ptr noundef @.str.44, i32 noundef 677, ptr noundef @.str.107, i32 noundef %27)
  %29 = icmp ne i32 %28, 0
  br i1 %29, label %31, label %30

30:                                               ; preds = %23
  store i32 0, ptr %2, align 4
  store i32 1, ptr %7, align 4
  br label %78

31:                                               ; preds = %23
  %32 = load ptr, ptr %6, align 8, !tbaa !49
  %33 = call i32 @SSL_set_alpn_protos(ptr noundef %32, ptr noundef @alpn_ossltest, i32 noundef 9)
  %34 = icmp ne i32 %33, 0
  %35 = zext i1 %34 to i32
  %36 = call i32 @test_false(ptr noundef @.str.44, i32 noundef 682, ptr noundef @.str.108, i32 noundef %35)
  %37 = icmp ne i32 %36, 0
  br i1 %37, label %39, label %38

38:                                               ; preds = %31
  br label %74

39:                                               ; preds = %31
  br label %40

40:                                               ; preds = %39, %18
  %41 = call ptr @radix_get_thread()
  %42 = getelementptr inbounds nuw %struct.radix_thread_st, ptr %41, i32 0, i32 12
  store i64 1, ptr %42, align 8, !tbaa !58
  %43 = load ptr, ptr %6, align 8, !tbaa !49
  %44 = call i32 @SSL_connect(ptr noundef %43)
  store i32 %44, ptr %5, align 4, !tbaa !9
  call void @radix_activate_slot(i64 noundef 0)
  %45 = load ptr, ptr %6, align 8, !tbaa !49
  %46 = load i32, ptr %5, align 4, !tbaa !9
  %47 = call i32 @check_consistent_want(ptr noundef %45, i32 noundef %46)
  %48 = icmp ne i32 %47, 0
  %49 = zext i1 %48 to i32
  %50 = call i32 @test_true(ptr noundef @.str.44, i32 noundef 689, ptr noundef @.str.109, i32 noundef %49)
  %51 = icmp ne i32 %50, 0
  br i1 %51, label %53, label %52

52:                                               ; preds = %40
  br label %74

53:                                               ; preds = %40
  %54 = load i32, ptr %5, align 4, !tbaa !9
  %55 = icmp ne i32 %54, 1
  br i1 %55, label %56, label %73

56:                                               ; preds = %53
  %57 = load ptr, ptr %6, align 8, !tbaa !49
  %58 = load i32, ptr %5, align 4, !tbaa !9
  %59 = call i32 @is_want(ptr noundef %57, i32 noundef %58)
  %60 = icmp ne i32 %59, 0
  br i1 %60, label %61, label %67

61:                                               ; preds = %56
  br label %62

62:                                               ; preds = %61
  store i32 2, ptr %4, align 4, !tbaa !9
  %63 = load ptr, ptr %3, align 8, !tbaa !42
  %64 = getelementptr inbounds nuw %struct.func_ctx_st, ptr %63, i32 0, i32 1
  store i32 1, ptr %64, align 8, !tbaa !63
  br label %74

65:                                               ; No predecessors!
  br label %66

66:                                               ; preds = %65
  br label %67

67:                                               ; preds = %66, %56
  %68 = load i32, ptr %5, align 4, !tbaa !9
  %69 = call i32 @test_int_eq(ptr noundef @.str.44, i32 noundef 696, ptr noundef @.str.110, ptr noundef @.str.60, i32 noundef %68, i32 noundef 1)
  %70 = icmp ne i32 %69, 0
  br i1 %70, label %72, label %71

71:                                               ; preds = %67
  br label %74

72:                                               ; preds = %67
  br label %73

73:                                               ; preds = %72, %53
  store i32 1, ptr %4, align 4, !tbaa !9
  br label %74

74:                                               ; preds = %73, %71, %62, %52, %38, %15
  %75 = call ptr @radix_get_thread()
  %76 = getelementptr inbounds nuw %struct.radix_thread_st, ptr %75, i32 0, i32 12
  store i64 0, ptr %76, align 8, !tbaa !58
  %77 = load i32, ptr %4, align 4, !tbaa !9
  store i32 %77, ptr %2, align 4
  store i32 1, ptr %7, align 4
  br label %78

78:                                               ; preds = %74, %30
  call void @llvm.lifetime.end.p0(i64 8, ptr %6) #9
  call void @llvm.lifetime.end.p0(i64 4, ptr %5) #9
  call void @llvm.lifetime.end.p0(i64 4, ptr %4) #9
  %79 = load i32, ptr %2, align 4
  ret i32 %79
}