; Function Attrs: nounwind uwtable
define internal range(i32 0, 3) i32 @hf_connect_wait(ptr noundef writeonly captures(none) %0) #1 {
  %2 = tail call i32 @test_size_t_lt(ptr noundef nonnull @.str.74, i32 noundef 670, ptr noundef nonnull @.str.93, ptr noundef nonnull @.str.86, i64 noundef 0, i64 noundef 8) #12
  %.not.i = icmp eq i32 %2, 0
  br i1 %.not.i, label %expect_slot_ssl.exit, label %3

3:                                                ; preds = %1
  %4 = tail call ptr @CRYPTO_THREAD_get_local(ptr noundef nonnull @radix_thread) #12
  %5 = getelementptr inbounds nuw i8, ptr %4, i64 104
  %6 = load ptr, ptr %5, align 8, !tbaa !49
  %7 = tail call i32 @test_ptr(ptr noundef nonnull @.str.74, i32 noundef 671, ptr noundef nonnull @.str.94, ptr noundef %6) #12
  %.not3.i = icmp ne i32 %7, 0
  %spec.select.i = zext i1 %.not3.i to i32
  br label %expect_slot_ssl.exit

expect_slot_ssl.exit:                             ; preds = %1, %3
  %.019 = phi ptr [ null, %1 ], [ %6, %3 ]
  %.0.i = phi i32 [ 0, %1 ], [ %spec.select.i, %3 ]
  %8 = tail call i32 @test_true(ptr noundef nonnull @.str.44, i32 noundef 673, ptr noundef nonnull @.str.95, i32 noundef %.0.i) #12
  %.not = icmp eq i32 %8, 0
  br i1 %.not, label %48, label %9

9:                                                ; preds = %expect_slot_ssl.exit
  %10 = tail call ptr @CRYPTO_THREAD_get_local(ptr noundef nonnull @radix_thread) #12
  %11 = getelementptr inbounds nuw i8, ptr %10, i64 200
  %12 = load i64, ptr %11, align 8, !tbaa !109
  %13 = icmp eq i64 %12, 0
  br i1 %13, label %14, label %24

14:                                               ; preds = %9
  %15 = tail call i32 @SSL_set_blocking_mode(ptr noundef %.019, i32 noundef 0) #12
  %16 = icmp ne i32 %15, 0
  %17 = zext i1 %16 to i32
  %18 = tail call i32 @test_true(ptr noundef nonnull @.str.44, i32 noundef 677, ptr noundef nonnull @.str.107, i32 noundef %17) #12
  %.not9 = icmp eq i32 %18, 0
  br i1 %.not9, label %51, label %19

19:                                               ; preds = %14
  %20 = tail call i32 @SSL_set_alpn_protos(ptr noundef %.019, ptr noundef nonnull @alpn_ossltest, i32 noundef 9) #12
  %21 = icmp ne i32 %20, 0
  %22 = zext i1 %21 to i32
  %23 = tail call i32 @test_false(ptr noundef nonnull @.str.44, i32 noundef 682, ptr noundef nonnull @.str.108, i32 noundef %22) #12
  %.not10 = icmp eq i32 %23, 0
  br i1 %.not10, label %48, label %24

24:                                               ; preds = %19, %9
  %25 = tail call ptr @CRYPTO_THREAD_get_local(ptr noundef nonnull @radix_thread) #12
  %26 = getelementptr inbounds nuw i8, ptr %25, i64 200
  store i64 1, ptr %26, align 8, !tbaa !109
  %27 = tail call i32 @SSL_connect(ptr noundef %.019) #12
  %28 = tail call ptr @CRYPTO_THREAD_get_local(ptr noundef nonnull @radix_thread) #12
  %29 = getelementptr inbounds nuw i8, ptr %28, i64 40
  %30 = load ptr, ptr %29, align 8, !tbaa !44
  %.not.i.i = icmp eq ptr %30, null
  br i1 %.not.i.i, label %radix_activate_slot.exit, label %31

31:                                               ; preds = %24
  %32 = getelementptr inbounds nuw i8, ptr %30, i64 16
  %33 = load i8, ptr %32, align 8
  %34 = or i8 %33, 2
  store i8 %34, ptr %32, align 8
  br label %radix_activate_slot.exit

radix_activate_slot.exit:                         ; preds = %24, %31
  %35 = tail call fastcc i32 @check_consistent_want(ptr noundef %.019, i32 noundef %27)
  %36 = icmp ne i32 %35, 0
  %37 = zext i1 %36 to i32
  %38 = tail call i32 @test_true(ptr noundef nonnull @.str.44, i32 noundef 689, ptr noundef nonnull @.str.109, i32 noundef %37) #12
  %.not11 = icmp eq i32 %38, 0
  br i1 %.not11, label %48, label %39

39:                                               ; preds = %radix_activate_slot.exit
  %.not12 = icmp eq i32 %27, 1
  br i1 %.not12, label %47, label %40

40:                                               ; preds = %39
  %41 = tail call i32 @SSL_get_error(ptr noundef %.019, i32 noundef range(i32 2, 1) %27) #12
  %42 = and i32 %41, -2
  %.not20 = icmp eq i32 %42, 2
  br i1 %.not20, label %43, label %45

43:                                               ; preds = %40
  %44 = getelementptr inbounds nuw i8, ptr %0, i64 8
  store i32 1, ptr %44, align 8, !tbaa !110
  br label %48

45:                                               ; preds = %40
  %46 = tail call i32 @test_int_eq(ptr noundef nonnull @.str.44, i32 noundef 696, ptr noundef nonnull @.str.110, ptr noundef nonnull @.str.60, i32 noundef %27, i32 noundef 1) #12
  %.not14 = icmp eq i32 %46, 0
  br i1 %.not14, label %48, label %47

47:                                               ; preds = %45, %39
  br label %48

48:                                               ; preds = %45, %radix_activate_slot.exit, %19, %expect_slot_ssl.exit, %47, %43
  %.07 = phi i32 [ 2, %43 ], [ 1, %47 ], [ 0, %45 ], [ 0, %radix_activate_slot.exit ], [ 0, %19 ], [ 0, %expect_slot_ssl.exit ]
  %49 = tail call ptr @CRYPTO_THREAD_get_local(ptr noundef nonnull @radix_thread) #12
  %50 = getelementptr inbounds nuw i8, ptr %49, i64 200
  store i64 0, ptr %50, align 8, !tbaa !109
  br label %51

51:                                               ; preds = %14, %48
  %.0 = phi i32 [ %.07, %48 ], [ 0, %14 ]
  ret i32 %.0
}